; Function Attrs: mustprogress nounwind uwtable
define internal fastcc noundef ptr @_ZN12_GLOBAL__N_115X86DAGToDAGISel16getGlobalBaseRegEv(ptr nocapture noundef nonnull readonly align 8 dereferenceable(288) %0) unnamed_addr #0 align 2 {
  %2 = getelementptr inbounds i8, ptr %0, i64 272
  %.val = load ptr, ptr %2, align 8
  %3 = getelementptr inbounds nuw i8, ptr %.val, i64 608
  %4 = getelementptr inbounds nuw i8, ptr %0, i64 40
  %5 = load ptr, ptr %4, align 8
  %6 = tail call noundef i32 @_ZNK4llvm12X86InstrInfo16getGlobalBaseRegEPNS_15MachineFunctionE(ptr noundef nonnull align 8 dereferenceable(416) %3, ptr noundef %5) #23
  %7 = load ptr, ptr %4, align 8
  %8 = tail call noundef nonnull align 8 dereferenceable(512) ptr @_ZNK4llvm15MachineFunction13getDataLayoutEv(ptr noundef nonnull align 8 dereferenceable(1041) %7) #23
  %9 = getelementptr inbounds nuw i8, ptr %0, i64 64
  %10 = load ptr, ptr %9, align 8
  %11 = getelementptr inbounds nuw i8, ptr %0, i64 128
  %12 = load ptr, ptr %11, align 8
  %13 = load ptr, ptr %12, align 8
  %14 = getelementptr inbounds i8, ptr %13, i64 32
  %15 = load ptr, ptr %14, align 8
  %16 = tail call i16 %15(ptr noundef nonnull align 8 dereferenceable(408123) %12, ptr noundef nonnull align 8 dereferenceable(512) %8, i32 noundef 0) #23
  %17 = tail call { ptr, i32 } @_ZN4llvm12SelectionDAG11getRegisterEjNS_3EVTE(ptr noundef nonnull align 8 dereferenceable(904) %10, i32 noundef %6, i16 %16, ptr null) #23
  %.fca.0.extract = extractvalue { ptr, i32 } %17, 0
  ret ptr %.fca.0.extract
}